; Function Attrs: mustprogress uwtable
define void @_ZN6icu_776number4impl19enum_to_stem_string23decimalSeparatorDisplayE30UNumberDecimalSeparatorDisplayRNS_13UnicodeStringE(i32 noundef %0, ptr noundef nonnull align 8 dereferenceable(64) %1) local_unnamed_addr #1 personality ptr @__gxx_personality_v0 {
  switch i32 %0, label %11 [
    i32 0, label %3
    i32 1, label %7
  ]

3:                                                ; preds = %2
  %4 = invoke noundef nonnull align 8 dereferenceable(64) ptr @_ZN6icu_7713UnicodeString8doAppendEPKDsii(ptr noundef nonnull align 8 dereferenceable(64) %1, ptr noundef nonnull @.str.32, i32 noundef 0, i32 noundef -1)
          to label %_ZN6icu_7713UnicodeString6appendENS_14ConstChar16PtrEi.exit unwind label %5

_ZN6icu_7713UnicodeString6appendENS_14ConstChar16PtrEi.exit: ; preds = %3
  tail call void asm sideeffect "", "rm,~{memory},~{dirflag},~{fpsr},~{flags}"(ptr nonnull @.str.32) #18, !srcloc !15
  br label %12

5:                                                ; preds = %3
  %6 = landingpad { ptr, i32 }
          cleanup
  tail call void asm sideeffect "", "rm,~{memory},~{dirflag},~{fpsr},~{flags}"(ptr nonnull @.str.32) #18, !srcloc !15
  br label %13

7:                                                ; preds = %2
  %8 = invoke noundef nonnull align 8 dereferenceable(64) ptr @_ZN6icu_7713UnicodeString8doAppendEPKDsii(ptr noundef nonnull align 8 dereferenceable(64) %1, ptr noundef nonnull @.str.33, i32 noundef 0, i32 noundef -1)
          to label %_ZN6icu_7713UnicodeString6appendENS_14ConstChar16PtrEi.exit6 unwind label %9

_ZN6icu_7713UnicodeString6appendENS_14ConstChar16PtrEi.exit6: ; preds = %7
  tail call void asm sideeffect "", "rm,~{memory},~{dirflag},~{fpsr},~{flags}"(ptr nonnull @.str.33) #18, !srcloc !15
  br label %12

9:                                                ; preds = %7
  %10 = landingpad { ptr, i32 }
          cleanup
  tail call void asm sideeffect "", "rm,~{memory},~{dirflag},~{fpsr},~{flags}"(ptr nonnull @.str.33) #18, !srcloc !15
  br label %13

11:                                               ; preds = %2
  tail call void @abort() #20
  unreachable

12:                                               ; preds = %_ZN6icu_7713UnicodeString6appendENS_14ConstChar16PtrEi.exit6, %_ZN6icu_7713UnicodeString6appendENS_14ConstChar16PtrEi.exit
  ret void

13:                                               ; preds = %9, %5
  %.pn = phi { ptr, i32 } [ %10, %9 ], [ %6, %5 ]
  resume { ptr, i32 } %.pn
}